; Function Attrs: mustprogress uwtable
define hidden void @_ZN2cv11bioinspired11RetinaColor29clipRGBOutput_0_maxInputValueEPff(ptr noundef nonnull readonly align 8 captures(none) dereferenceable(349) %0, ptr noundef %1, float noundef %2) local_unnamed_addr #3 align 2 personality ptr @__gxx_personality_v0 {
  %4 = alloca %"class.cv::Range", align 4
  %5 = alloca %"class.cv::bioinspired::Parallel_clipBufferValues", align 8
  %6 = icmp eq ptr %1, null
  %7 = getelementptr inbounds nuw i8, ptr %0, i64 280
  %8 = load ptr, ptr %7, align 8
  %.0 = select i1 %6, ptr %8, ptr %1
  call void @llvm.lifetime.start.p0(i64 8, ptr nonnull %4) #19
  %9 = getelementptr inbounds nuw i8, ptr %0, i64 56
  %10 = load i64, ptr %9, align 8, !tbaa !61
  %11 = trunc i64 %10 to i32
  %12 = mul i32 %11, 3
  store i32 0, ptr %4, align 4, !tbaa !151
  %13 = getelementptr inbounds nuw i8, ptr %4, i64 4
  store i32 %12, ptr %13, align 4, !tbaa !153
  call void @llvm.lifetime.start.p0(i64 24, ptr nonnull %5) #19
  store ptr getelementptr inbounds nuw inrange(-16, 24) (i8, ptr @_ZTVN2cv11bioinspired25Parallel_clipBufferValuesIfEE, i64 16), ptr %5, align 8, !tbaa !3
  %14 = getelementptr inbounds nuw i8, ptr %5, i64 8
  store ptr %.0, ptr %14, align 8, !tbaa !170
  %15 = getelementptr inbounds nuw i8, ptr %5, i64 16
  store float 0.000000e+00, ptr %15, align 8, !tbaa !172
  %16 = getelementptr inbounds nuw i8, ptr %5, i64 20
  store float %2, ptr %16, align 4, !tbaa !173
  invoke void @_ZN2cv13parallel_for_ERKNS_5RangeERKNS_16ParallelLoopBodyEd(ptr noundef nonnull align 4 dereferenceable(8) %4, ptr noundef nonnull align 8 dereferenceable(8) %5, double noundef -1.000000e+00)
          to label %17 unwind label %18

17:                                               ; preds = %3
  call void @_ZN2cv16ParallelLoopBodyD2Ev(ptr noundef nonnull align 8 dereferenceable(24) %5) #19
  call void @llvm.lifetime.end.p0(i64 24, ptr nonnull %5) #19
  call void @llvm.lifetime.end.p0(i64 8, ptr nonnull %4) #19
  ret void

18:                                               ; preds = %3
  %19 = landingpad { ptr, i32 }
          cleanup
  call void @_ZN2cv16ParallelLoopBodyD2Ev(ptr noundef nonnull align 8 dereferenceable(24) %5) #19
  call void @llvm.lifetime.end.p0(i64 24, ptr nonnull %5) #19
  call void @llvm.lifetime.end.p0(i64 8, ptr nonnull %4) #19
  resume { ptr, i32 } %19
}